; Function Attrs: mustprogress nounwind uwtable
define dso_local noundef zeroext i1 @_ZN4llvm26ScheduleDAGTopologicalSort11IsReachableEPKNS_5SUnitES3_(ptr noundef nonnull align 8 dereferenceable(416) %0, ptr nocapture noundef readonly %1, ptr noundef %2) local_unnamed_addr #1 align 2 {
  %4 = alloca i8, align 1
  tail call void @_ZN4llvm26ScheduleDAGTopologicalSort8FixOrderEv(ptr noundef nonnull align 8 dereferenceable(416) %0)
  %5 = getelementptr inbounds nuw i8, ptr %0, i64 320
  %6 = getelementptr inbounds nuw i8, ptr %2, i64 200
  %7 = load i32, ptr %6, align 8
  %8 = zext i32 %7 to i64
  %9 = load ptr, ptr %5, align 8
  %10 = getelementptr inbounds i32, ptr %9, i64 %8
  %11 = load i32, ptr %10, align 4
  %12 = getelementptr inbounds nuw i8, ptr %1, i64 200
  %13 = load i32, ptr %12, align 8
  %14 = zext i32 %13 to i64
  %15 = getelementptr inbounds i32, ptr %9, i64 %14
  %16 = load i32, ptr %15, align 4
  store i8 0, ptr %4, align 1
  %17 = icmp slt i32 %11, %16
  br i1 %17, label %18, label %24

18:                                               ; preds = %3
  %19 = getelementptr inbounds nuw i8, ptr %0, i64 344
  %20 = load ptr, ptr %19, align 8
  %21 = tail call noundef i64 @_ZNK4llvm15SmallVectorBaseIjE4sizeEv(ptr noundef nonnull align 8 dereferenceable(16) %19) #16
  %.not5.i.i.i.i.i = icmp eq i64 %21, 0
  br i1 %.not5.i.i.i.i.i, label %_ZN4llvm9BitVector5resetEv.exit, label %.lr.ph.i.i.i.i.preheader.i

.lr.ph.i.i.i.i.preheader.i:                       ; preds = %18
  %22 = shl i64 %21, 3
  tail call void @llvm.memset.p0.i64(ptr align 8 %20, i8 0, i64 %22, i1 false)
  br label %_ZN4llvm9BitVector5resetEv.exit

_ZN4llvm9BitVector5resetEv.exit:                  ; preds = %18, %.lr.ph.i.i.i.i.preheader.i
  call void @_ZN4llvm26ScheduleDAGTopologicalSort3DFSEPKNS_5SUnitEiRb(ptr noundef nonnull align 8 dereferenceable(416) %0, ptr noundef nonnull %2, i32 noundef %16, ptr noundef nonnull align 1 dereferenceable(1) %4)
  %.pre = load i8, ptr %4, align 1
  %23 = trunc i8 %.pre to i1
  br label %24

24:                                               ; preds = %_ZN4llvm9BitVector5resetEv.exit, %3
  %25 = phi i1 [ %23, %_ZN4llvm9BitVector5resetEv.exit ], [ false, %3 ]
  ret i1 %25
}